target datalayout = "e-m:e-p270:32:32-p271:32:32-p272:64:64-i64:64-i128:128-f80:128-n8:16:32:64-S128"
target triple = "x86_64-pc-linux-gnu"

@.str.10 = private unnamed_addr constant [12 x i8] c"riscv,plic0\00", align 1
@.str.11 = private unnamed_addr constant [18 x i8] c"sifive,plic-1.0.0\00", align 1
@_ZN6plic_tC1EPK7simif_tj = unnamed_addr alias void (ptr, ptr, i32), ptr @_ZN6plic_tC2EPK7simif_tj

; Function Attrs: mustprogress uwtable
define noundef ptr @_Z19plic_parse_from_fdtPKvPK5sim_tPmRKSt6vectorINSt7__cxx1112basic_stringIcSt11char_traitsIcESaIcEEESaISB_EE(ptr noundef %0, ptr noundef %1, ptr noundef %2, ptr noundef nonnull align 8 dereferenceable(24) %3) #4 personality ptr @__gxx_personality_v0 {
  %5 = alloca ptr, align 8
  %6 = alloca ptr, align 8
  %7 = alloca ptr, align 8
  %8 = alloca ptr, align 8
  %9 = alloca ptr, align 8
  %10 = alloca i32, align 4
  %11 = alloca ptr, align 8
  %12 = alloca i32, align 4
  %13 = alloca i32, align 4
  store ptr %0, ptr %6, align 8, !tbaa !87
  store ptr %1, ptr %7, align 8, !tbaa !78
  store ptr %2, ptr %8, align 8, !tbaa !29
  store ptr %3, ptr %9, align 8, !tbaa !80
  call void @llvm.lifetime.start.p0(i64 4, ptr %10) #3
  %14 = load ptr, ptr %6, align 8, !tbaa !87
  %15 = load ptr, ptr %8, align 8, !tbaa !29
  %16 = call noundef i32 @_Z14fdt_parse_plicPKvPmPjPKc(ptr noundef %14, ptr noundef %15, ptr noundef %10, ptr noundef @.str.10)
  %17 = icmp eq i32 %16, 0
  br i1 %17, label %23, label %18

18:                                               ; preds = %4
  %19 = load ptr, ptr %6, align 8, !tbaa !87
  %20 = load ptr, ptr %8, align 8, !tbaa !29
  %21 = call noundef i32 @_Z14fdt_parse_plicPKvPmPjPKc(ptr noundef %19, ptr noundef %20, ptr noundef %10, ptr noundef @.str.11)
  %22 = icmp eq i32 %21, 0
  br i1 %22, label %23, label %37

23:                                               ; preds = %18, %4
  %24 = call noalias noundef nonnull ptr @_Znwm(i64 noundef 1208) #23
  %25 = load ptr, ptr %7, align 8, !tbaa !78
  %26 = icmp eq ptr %25, null
  br i1 %26, label %29, label %27

27:                                               ; preds = %23
  %28 = getelementptr inbounds i8, ptr %25, i64 712
  br label %29

29:                                               ; preds = %27, %23
  %30 = phi ptr [ %28, %27 ], [ null, %23 ]
  %31 = load i32, ptr %10, align 4, !tbaa !10
  invoke void @_ZN6plic_tC1EPK7simif_tj(ptr noundef nonnull align 8 dereferenceable(1204) %24, ptr noundef %30, i32 noundef %31)
          to label %32 unwind label %33

32:                                               ; preds = %29
  store ptr %24, ptr %5, align 8
  store i32 1, ptr %13, align 4
  br label %38

33:                                               ; preds = %29
  %34 = landingpad { ptr, i32 }
          cleanup
  %35 = extractvalue { ptr, i32 } %34, 0
  store ptr %35, ptr %11, align 8
  %36 = extractvalue { ptr, i32 } %34, 1
  store i32 %36, ptr %12, align 4
  call void @_ZdlPvm(ptr noundef %24, i64 noundef 1208) #24
  call void @llvm.lifetime.end.p0(i64 4, ptr %10) #3
  br label %40

37:                                               ; preds = %18
  store ptr null, ptr %5, align 8
  store i32 1, ptr %13, align 4
  br label %38

38:                                               ; preds = %37, %32
  call void @llvm.lifetime.end.p0(i64 4, ptr %10) #3
  %39 = load ptr, ptr %5, align 8
  ret ptr %39

40:                                               ; preds = %33
  %41 = load ptr, ptr %11, align 8
  %42 = load i32, ptr %12, align 4
  %43 = insertvalue { ptr, i32 } poison, ptr %41, 0
  %44 = insertvalue { ptr, i32 } %43, i32 %42, 1
  resume { ptr, i32 } %44
}