; Function Attrs: mustprogress uwtable
define noundef ptr @_Z19plic_parse_from_fdtPKvPK5sim_tPmRKSt6vectorINSt7__cxx1112basic_stringIcSt11char_traitsIcESaIcEEESaISB_EE(ptr noundef %0, ptr noundef %1, ptr noundef %2, ptr noundef nonnull readnone align 8 captures(none) dereferenceable(24) %3) local_unnamed_addr #3 personality ptr @__gxx_personality_v0 {
  %5 = alloca i32, align 4
  call void @llvm.lifetime.start.p0(i64 4, ptr nonnull %5) #30
  %6 = call noundef i32 @_Z14fdt_parse_plicPKvPmPjPKc(ptr noundef %0, ptr noundef %2, ptr noundef nonnull %5, ptr noundef nonnull @.str.10)
  %7 = icmp eq i32 %6, 0
  br i1 %7, label %11, label %8

8:                                                ; preds = %4
  %9 = call noundef i32 @_Z14fdt_parse_plicPKvPmPjPKc(ptr noundef %0, ptr noundef %2, ptr noundef nonnull %5, ptr noundef nonnull @.str.11)
  %10 = icmp eq i32 %9, 0
  br i1 %10, label %11, label %18

11:                                               ; preds = %8, %4
  %12 = call noalias noundef nonnull dereferenceable(1208) ptr @_Znwm(i64 noundef 1208) #28
  %13 = icmp eq ptr %1, null
  %14 = getelementptr inbounds nuw i8, ptr %1, i64 712
  %spec.select = select i1 %13, ptr null, ptr %14
  %15 = load i32, ptr %5, align 4, !tbaa !53
  invoke void @_ZN6plic_tC1EPK7simif_tj(ptr noundef nonnull align 8 dereferenceable(1204) %12, ptr noundef %spec.select, i32 noundef %15)
          to label %18 unwind label %16

16:                                               ; preds = %11
  %17 = landingpad { ptr, i32 }
          cleanup
  call void @_ZdlPvm(ptr noundef nonnull %12, i64 noundef 1208) #29
  call void @llvm.lifetime.end.p0(i64 4, ptr nonnull %5) #30
  resume { ptr, i32 } %17

18:                                               ; preds = %8, %11
  %.0 = phi ptr [ %12, %11 ], [ null, %8 ]
  call void @llvm.lifetime.end.p0(i64 4, ptr nonnull %5) #30
  ret ptr %.0
}